; Function Attrs: nounwind uwtable
define dso_local noundef zeroext i1 @sequenceIsOwned(i32 noundef %0, i8 noundef signext %1, ptr noundef writeonly captures(none) %2, ptr noundef writeonly captures(none) %3) local_unnamed_addr #0 {
  %5 = alloca [2 x %struct.ScanKeyData], align 16
  call void @llvm.lifetime.start.p0(i64 144, ptr nonnull %5) #7
  %6 = tail call ptr @table_open(i32 noundef 2608, i32 noundef 1) #7
  call void @ScanKeyInit(ptr noundef nonnull %5, i16 noundef signext 1, i16 noundef zeroext 3, i32 noundef 184, i64 noundef 1259) #7
  %7 = getelementptr inbounds nuw i8, ptr %5, i64 72
  %8 = zext i32 %0 to i64
  call void @ScanKeyInit(ptr noundef nonnull %7, i16 noundef signext 2, i16 noundef zeroext 3, i32 noundef 184, i64 noundef %8) #7
  %9 = call ptr @systable_beginscan(ptr noundef %6, i32 noundef 2673, i1 noundef zeroext true, ptr noundef null, i32 noundef 2, ptr noundef nonnull %5) #7
  %10 = call ptr @systable_getnext(ptr noundef %9) #7
  %.not21.not = icmp eq ptr %10, null
  br i1 %.not21.not, label %.loopexit, label %.lr.ph

.lr.ph:                                           ; preds = %4, %28
  %11 = phi ptr [ %29, %28 ], [ %10, %4 ]
  %12 = getelementptr i8, ptr %11, i64 16
  %.val = load ptr, ptr %12, align 8
  %13 = getelementptr inbounds nuw i8, ptr %.val, i64 22
  %14 = load i8, ptr %13, align 2
  %15 = zext i8 %14 to i64
  %16 = getelementptr inbounds nuw i8, ptr %.val, i64 %15
  %17 = getelementptr inbounds nuw i8, ptr %16, i64 12
  %18 = load i32, ptr %17, align 4
  %19 = icmp eq i32 %18, 1259
  br i1 %19, label %20, label %28

20:                                               ; preds = %.lr.ph
  %21 = getelementptr inbounds nuw i8, ptr %16, i64 24
  %22 = load i8, ptr %21, align 4
  %23 = icmp eq i8 %22, %1
  br i1 %23, label %.thread, label %28

.thread:                                          ; preds = %20
  %24 = getelementptr inbounds nuw i8, ptr %16, i64 16
  %25 = load i32, ptr %24, align 4
  store i32 %25, ptr %2, align 4
  %26 = getelementptr inbounds nuw i8, ptr %16, i64 20
  %27 = load i32, ptr %26, align 4
  store i32 %27, ptr %3, align 4
  br label %.loopexit

28:                                               ; preds = %.lr.ph, %20
  %29 = call ptr @systable_getnext(ptr noundef %9) #7
  %.not.not = icmp eq ptr %29, null
  br i1 %.not.not, label %.loopexit, label %.lr.ph

.loopexit:                                        ; preds = %28, %4, %.thread
  %.not20 = phi i1 [ true, %.thread ], [ false, %4 ], [ false, %28 ]
  call void @systable_endscan(ptr noundef %9) #7
  call void @table_close(ptr noundef %6, i32 noundef 1) #7
  call void @llvm.lifetime.end.p0(i64 144, ptr nonnull %5) #7
  ret i1 %.not20
}